target datalayout = "e-m:e-p270:32:32-p271:32:32-p272:64:64-i64:64-i128:128-f80:128-n8:16:32:64-S128"
target triple = "x86_64-unknown-linux-gnu"

@_ZN6icu_7511MeasureUnitC1Eii = unnamed_addr alias void (ptr, i32, i32), ptr @_ZN6icu_7511MeasureUnitC2Eii

; Function Attrs: mustprogress nounwind uwtable
define internal noundef signext i8 @_ZL9U_FAILURE10UErrorCode(i32 noundef %code) #0 {
entry:
  %code.addr = alloca i32, align 4
  store i32 %code, ptr %code.addr, align 4
  %0 = load i32, ptr %code.addr, align 4
  %cmp = icmp sgt i32 %0, 0
  %conv = zext i1 %cmp to i8
  ret i8 %conv
}

; Function Attrs: mustprogress uwtable
define noundef ptr @_ZN6icu_7511MeasureUnit6createEiiR10UErrorCode(i32 noundef %typeId, i32 noundef %subTypeId, ptr noundef nonnull align 4 dereferenceable(4) %status) #1 align 2 personality ptr @__gxx_personality_v0 {
entry:
  %retval = alloca ptr, align 8
  %typeId.addr = alloca i32, align 4
  %subTypeId.addr = alloca i32, align 4
  %status.addr = alloca ptr, align 8
  %result = alloca ptr, align 8
  %saved-rvalue = alloca ptr, align 8
  %cleanup.cond = alloca i1, align 1
  %exn.slot = alloca ptr, align 8
  %ehselector.slot = alloca i32, align 4
  store i32 %typeId, ptr %typeId.addr, align 4
  store i32 %subTypeId, ptr %subTypeId.addr, align 4
  store ptr %status, ptr %status.addr, align 8
  %0 = load ptr, ptr %status.addr, align 8
  %1 = load i32, ptr %0, align 4
  %call = call noundef signext i8 @_ZL9U_FAILURE10UErrorCode(i32 noundef %1)
  %tobool = icmp ne i8 %call, 0
  br i1 %tobool, label %if.then, label %if.end

if.then:                                          ; preds = %entry
  store ptr null, ptr %retval, align 8
  br label %return

if.end:                                           ; preds = %entry
  %call1 = call noundef ptr @_ZN6icu_757UMemorynwEm(i64 noundef 24) #8
  %new.isnull = icmp eq ptr %call1, null
  store i1 false, ptr %cleanup.cond, align 1
  br i1 %new.isnull, label %new.cont, label %new.notnull

new.notnull:                                      ; preds = %if.end
  store ptr %call1, ptr %saved-rvalue, align 8
  store i1 true, ptr %cleanup.cond, align 1
  %2 = load i32, ptr %typeId.addr, align 4
  %3 = load i32, ptr %subTypeId.addr, align 4
  invoke void @_ZN6icu_7511MeasureUnitC1Eii(ptr noundef nonnull align 8 dereferenceable(19) %call1, i32 noundef %2, i32 noundef %3)
          to label %invoke.cont unwind label %lpad

invoke.cont:                                      ; preds = %new.notnull
  br label %new.cont

new.cont:                                         ; preds = %invoke.cont, %if.end
  %4 = phi ptr [ %call1, %invoke.cont ], [ null, %if.end ]
  store ptr %4, ptr %result, align 8
  %5 = load ptr, ptr %result, align 8
  %cmp = icmp eq ptr %5, null
  br i1 %cmp, label %if.then2, label %if.end3

if.then2:                                         ; preds = %new.cont
  %6 = load ptr, ptr %status.addr, align 8
  store i32 7, ptr %6, align 4
  br label %if.end3

lpad:                                             ; preds = %new.notnull
  %7 = landingpad { ptr, i32 }
          cleanup
  %8 = extractvalue { ptr, i32 } %7, 0
  store ptr %8, ptr %exn.slot, align 8
  %9 = extractvalue { ptr, i32 } %7, 1
  store i32 %9, ptr %ehselector.slot, align 4
  %cleanup.is_active = load i1, ptr %cleanup.cond, align 1
  br i1 %cleanup.is_active, label %cleanup.action, label %cleanup.done

cleanup.action:                                   ; preds = %lpad
  %10 = load ptr, ptr %saved-rvalue, align 8
  call void @_ZN6icu_757UMemorydlEPv(ptr noundef %10) #8
  br label %cleanup.done

cleanup.done:                                     ; preds = %cleanup.action, %lpad
  br label %eh.resume

if.end3:                                          ; preds = %if.then2, %new.cont
  %11 = load ptr, ptr %result, align 8
  store ptr %11, ptr %retval, align 8
  br label %return

return:                                           ; preds = %if.end3, %if.then
  %12 = load ptr, ptr %retval, align 8
  ret ptr %12

eh.resume:                                        ; preds = %cleanup.done
  %exn = load ptr, ptr %exn.slot, align 8
  %sel = load i32, ptr %ehselector.slot, align 4
  %lpad.val = insertvalue { ptr, i32 } poison, ptr %exn, 0
  %lpad.val4 = insertvalue { ptr, i32 } %lpad.val, i32 %sel, 1
  resume { ptr, i32 } %lpad.val4
}

; Function Attrs: mustprogress uwtable
define noundef ptr @_ZN6icu_7511MeasureUnit10createInchER10UErrorCode(ptr noundef nonnull align 4 dereferenceable(4) %status) #1 align 2 {
entry:
  %status.addr = alloca ptr, align 8
  store ptr %status, ptr %status.addr, align 8
  %0 = load ptr, ptr %status.addr, align 8
  %call = call noundef ptr @_ZN6icu_7511MeasureUnit6createEiiR10UErrorCode(i32 noundef 13, i32 noundef 7, ptr noundef nonnull align 4 dereferenceable(4) %0)
  ret ptr %call
}